; Function Attrs: mustprogress nounwind uwtable
define void @_ZN5faiss12WorkerThreadD2Ev(ptr noundef nonnull align 8 dereferenceable(184) %0) unnamed_addr #4 align 2 personality ptr @__gxx_personality_v0 {
  %2 = getelementptr inbounds nuw i8, ptr %0, i64 8
  %3 = tail call noundef i32 @pthread_mutex_lock(ptr noundef nonnull align 8 dereferenceable(40) %2) #25
  %.not.i.i.i = icmp eq i32 %3, 0
  br i1 %.not.i.i.i, label %5, label %4

4:                                                ; preds = %1
  invoke void @_ZSt20__throw_system_errori(i32 noundef %3) #28
          to label %.noexc unwind label %15

.noexc:                                           ; preds = %4
  unreachable

5:                                                ; preds = %1
  %6 = getelementptr inbounds nuw i8, ptr %0, i64 96
  store i8 1, ptr %6, align 8, !tbaa !4
  %7 = getelementptr inbounds nuw i8, ptr %0, i64 48
  tail call void @_ZNSt18condition_variable10notify_oneEv(ptr noundef nonnull align 8 dereferenceable(48) %7) #25
  %8 = tail call noundef i32 @pthread_mutex_unlock(ptr noundef nonnull align 8 dereferenceable(40) %2) #25
  invoke void @_ZNSt6thread4joinEv(ptr noundef nonnull align 8 dereferenceable(184) %0)
          to label %_ZN5faiss12WorkerThread17waitForThreadExitEv.exit unwind label %9

9:                                                ; preds = %5
  %10 = landingpad { ptr, i32 }
          catch ptr null
  %11 = extractvalue { ptr, i32 } %10, 0
  %12 = tail call ptr @__cxa_begin_catch(ptr %11) #25
  invoke void @__cxa_end_catch()
          to label %_ZN5faiss12WorkerThread17waitForThreadExitEv.exit unwind label %15

_ZN5faiss12WorkerThread17waitForThreadExitEv.exit: ; preds = %5, %9
  %13 = getelementptr inbounds nuw i8, ptr %0, i64 104
  tail call void @_ZNSt5dequeISt4pairISt8functionIFvvEESt7promiseIbEESaIS6_EED2Ev(ptr noundef nonnull align 8 dereferenceable(80) %13) #25
  tail call void @_ZNSt18condition_variableD1Ev(ptr noundef nonnull align 8 dereferenceable(48) %7) #25
  %.sroa.0.0.copyload.i.i = load i64, ptr %0, align 8, !tbaa !31
  %.not.i = icmp eq i64 %.sroa.0.0.copyload.i.i, 0
  br i1 %.not.i, label %_ZNSt6threadD2Ev.exit, label %14

14:                                               ; preds = %_ZN5faiss12WorkerThread17waitForThreadExitEv.exit
  tail call void @_ZSt9terminatev() #27
  unreachable

_ZNSt6threadD2Ev.exit:                            ; preds = %_ZN5faiss12WorkerThread17waitForThreadExitEv.exit
  ret void

15:                                               ; preds = %9, %4
  %16 = landingpad { ptr, i32 }
          catch ptr null
  %17 = extractvalue { ptr, i32 } %16, 0
  tail call void @__clang_call_terminate(ptr %17) #27
  unreachable
}